	.file	"task3.cpp"
	.intel_syntax noprefix
	.text
#APP
	.globl _ZSt21ios_base_library_initv
#NO_APP
	.globl	_Z4diffii
	.type	_Z4diffii, @function
_Z4diffii:
.LFB1988:
	.cfi_startproc
	endbr64
	push	rbp
	.cfi_def_cfa_offset 16
	.cfi_offset 6, -16
	mov	rbp, rsp
	.cfi_def_cfa_register 6
	mov	DWORD PTR -4[rbp], edi
	mov	DWORD PTR -8[rbp], esi
	mov	eax, DWORD PTR -4[rbp]
	cmp	eax, DWORD PTR -8[rbp]
	jle	.L2
	mov	eax, DWORD PTR -4[rbp]
	sub	eax, DWORD PTR -8[rbp]
	jmp	.L3
.L2:
	mov	eax, DWORD PTR -8[rbp]
	sub	eax, DWORD PTR -4[rbp]
.L3:
	pop	rbp
	.cfi_def_cfa 7, 8
	ret
	.cfi_endproc
.LFE1988:
	.size	_Z4diffii, .-_Z4diffii
	.globl	_Z4prodi
	.type	_Z4prodi, @function
_Z4prodi:
.LFB1989:
	.cfi_startproc
	endbr64
	push	rbp
	.cfi_def_cfa_offset 16
	.cfi_offset 6, -16
	mov	rbp, rsp
	.cfi_def_cfa_register 6
	mov	DWORD PTR -20[rbp], edi
	mov	DWORD PTR -4[rbp], 1
	jmp	.L5
.L6:
	mov	ecx, DWORD PTR -20[rbp]
	movsx	rax, ecx
	imul	rax, rax, 1717986919
	shr	rax, 32
	mov	edx, eax
	sar	edx, 2
	mov	eax, ecx
	sar	eax, 31
	sub	edx, eax
	mov	eax, edx
	sal	eax, 2
	add	eax, edx
	add	eax, eax
	sub	ecx, eax
	mov	edx, ecx
	mov	eax, DWORD PTR -4[rbp]
	imul	eax, edx
	mov	DWORD PTR -4[rbp], eax
	mov	eax, DWORD PTR -20[rbp]
	movsx	rdx, eax
	imul	rdx, rdx, 1717986919
	shr	rdx, 32
	mov	ecx, edx
	sar	ecx, 2
	cdq
	mov	eax, ecx
	sub	eax, edx
	mov	DWORD PTR -20[rbp], eax
.L5:
	cmp	DWORD PTR -20[rbp], 0
	jg	.L6
	mov	eax, DWORD PTR -4[rbp]
	pop	rbp
	.cfi_def_cfa 7, 8
	ret
	.cfi_endproc
.LFE1989:
	.size	_Z4prodi, .-_Z4prodi
	.globl	_Z3sumi
	.type	_Z3sumi, @function
_Z3sumi:
.LFB1990:
	.cfi_startproc
	endbr64
	push	rbp
	.cfi_def_cfa_offset 16
	.cfi_offset 6, -16
	mov	rbp, rsp
	.cfi_def_cfa_register 6
	mov	DWORD PTR -20[rbp], edi
	mov	DWORD PTR -4[rbp], 0
	jmp	.L9
.L10:
	mov	ecx, DWORD PTR -20[rbp]
	movsx	rax, ecx
	imul	rax, rax, 1717986919
	shr	rax, 32
	mov	edx, eax
	sar	edx, 2
	mov	eax, ecx
	sar	eax, 31
	sub	edx, eax
	mov	eax, edx
	sal	eax, 2
	add	eax, edx
	add	eax, eax
	sub	ecx, eax
	mov	edx, ecx
	add	DWORD PTR -4[rbp], edx
	mov	eax, DWORD PTR -20[rbp]
	movsx	rdx, eax
	imul	rdx, rdx, 1717986919
	shr	rdx, 32
	mov	ecx, edx
	sar	ecx, 2
	cdq
	mov	eax, ecx
	sub	eax, edx
	mov	DWORD PTR -20[rbp], eax
.L9:
	cmp	DWORD PTR -20[rbp], 0
	jg	.L10
	mov	eax, DWORD PTR -4[rbp]
	pop	rbp
	.cfi_def_cfa 7, 8
	ret
	.cfi_endproc
.LFE1990:
	.size	_Z3sumi, .-_Z3sumi
	.section	.rodata
.LC0:
	.string	"Enter the number: "
.LC1:
	.string	" "
.LC2:
	.string	"Number is not natural"
	.text
	.globl	main
	.type	main, @function
main:
.LFB1991:
	.cfi_startproc
	endbr64
	push	rbp
	.cfi_def_cfa_offset 16
	.cfi_offset 6, -16
	mov	rbp, rsp
	.cfi_def_cfa_register 6
	push	rbx
	sub	rsp, 40
	.cfi_offset 3, -24
	mov	rax, QWORD PTR fs:40
	mov	QWORD PTR -24[rbp], rax
	xor	eax, eax
	lea	rax, .LC0[rip]
	mov	rsi, rax
	lea	rax, _ZSt4cout[rip]
	mov	rdi, rax
	call	_ZStlsISt11char_traitsIcEERSt13basic_ostreamIcT_ES5_PKc@PLT
	lea	rax, -36[rbp]
	mov	rsi, rax
	lea	rax, _ZSt3cin[rip]
	mov	rdi, rax
	call	_ZNSirsERi@PLT
	mov	eax, DWORD PTR -36[rbp]
	test	eax, eax
	jle	.L13
	mov	eax, DWORD PTR -36[rbp]
	mov	edi, eax
	call	_Z3sumi
	mov	DWORD PTR -32[rbp], eax
	mov	eax, DWORD PTR -36[rbp]
	mov	edi, eax
	call	_Z4prodi
	mov	DWORD PTR -28[rbp], eax
	mov	eax, DWORD PTR -32[rbp]
	mov	esi, eax
	lea	rax, _ZSt4cout[rip]
	mov	rdi, rax
	call	_ZNSolsEi@PLT
	mov	rdx, rax
	lea	rax, .LC1[rip]
	mov	rsi, rax
	mov	rdi, rdx
	call	_ZStlsISt11char_traitsIcEERSt13basic_ostreamIcT_ES5_PKc@PLT
	mov	rdx, rax
	mov	eax, DWORD PTR -28[rbp]
	mov	esi, eax
	mov	rdi, rdx
	call	_ZNSolsEi@PLT
	mov	rdx, rax
	lea	rax, .LC1[rip]
	mov	rsi, rax
	mov	rdi, rdx
	call	_ZStlsISt11char_traitsIcEERSt13basic_ostreamIcT_ES5_PKc@PLT
	mov	rbx, rax
	mov	edx, DWORD PTR -28[rbp]
	mov	eax, DWORD PTR -32[rbp]
	mov	esi, edx
	mov	edi, eax
	call	_Z4diffii
	mov	esi, eax
	mov	rdi, rbx
	call	_ZNSolsEi@PLT
	jmp	.L14
.L13:
	lea	rax, .LC2[rip]
	mov	rsi, rax
	lea	rax, _ZSt4cout[rip]
	mov	rdi, rax
	call	_ZStlsISt11char_traitsIcEERSt13basic_ostreamIcT_ES5_PKc@PLT
.L14:
	mov	eax, 0
	mov	rdx, QWORD PTR -24[rbp]
	sub	rdx, QWORD PTR fs:40
	je	.L16
	call	__stack_chk_fail@PLT
.L16:
	mov	rbx, QWORD PTR -8[rbp]
	leave
	.cfi_def_cfa 7, 8
	ret
	.cfi_endproc
.LFE1991:
	.size	main, .-main
	.section	.rodata
	.type	_ZNSt8__detail30__integer_to_chars_is_unsignedIjEE, @object
	.size	_ZNSt8__detail30__integer_to_chars_is_unsignedIjEE, 1
_ZNSt8__detail30__integer_to_chars_is_unsignedIjEE:
	.byte	1
	.type	_ZNSt8__detail30__integer_to_chars_is_unsignedImEE, @object
	.size	_ZNSt8__detail30__integer_to_chars_is_unsignedImEE, 1
_ZNSt8__detail30__integer_to_chars_is_unsignedImEE:
	.byte	1
	.type	_ZNSt8__detail30__integer_to_chars_is_unsignedIyEE, @object
	.size	_ZNSt8__detail30__integer_to_chars_is_unsignedIyEE, 1
_ZNSt8__detail30__integer_to_chars_is_unsignedIyEE:
	.byte	1
	.ident	"GCC: (Ubuntu 13.3.0-6ubuntu2~24.04) 13.3.0"
	.section	.note.GNU-stack,"",@progbits
	.section	.note.gnu.property,"a"
	.align 8
	.long	1f - 0f
	.long	4f - 1f
	.long	5
0:
	.string	"GNU"
1:
	.align 8
	.long	0xc0000002
	.long	3f - 2f
2:
	.long	0x3
3:
	.align 8
4:
